MPLINK 5.00, LINKER
Linker Map File - Created Wed Mar 08 12:34:10 2017

                                 Section Info
                  Section       Type    Address   Location Size(Bytes)
                ---------  ---------  ---------  ---------  ---------
               _entry_scn       code   0x000000    program   0x000006
           .code___init.o       code   0x000006    program   0x000002
      InterruptVectorHigh       code   0x000008    program   0x000006
.code_SoftwareUARTDelays.o       code   0x00000e    program   0x000006
      .idata_putsuart.o_i    romdata   0x000014    program   0x000000
      .romdata_putsuart.o    romdata   0x000014    program   0x000000
.idata_SoftwareUARTDelays.o_i    romdata   0x000014    program   0x000000
.romdata_SoftwareUARTDelays.o    romdata   0x000014    program   0x000000
         .idata_uopen.o_i    romdata   0x000014    program   0x000000
         .romdata_uopen.o    romdata   0x000014    program   0x000000
        .idata_uwrite.o_i    romdata   0x000014    program   0x000000
        .romdata_uwrite.o    romdata   0x000014    program   0x000000
         .idata_udefs.o_i    romdata   0x000014    program   0x000000
         .romdata_udefs.o    romdata   0x000014    program   0x000000
            .code_udefs.o       code   0x000014    program   0x000000
          .romdata_main.o    romdata   0x000014    program   0x000000
        .idata___init.o_i    romdata   0x000014    program   0x000000
        .romdata___init.o    romdata   0x000014    program   0x000000
            .code_c018i.o       code   0x000014    program   0x000000
         .romdata_c018i.o    romdata   0x000014    program   0x000000
         .idata_c018i.o_i    romdata   0x000014    program   0x000000
          InterruptVector       code   0x000018    program   0x000006
                   .cinit    romdata   0x00001e    program   0x00000e
             .code_main.o       code   0x00002c    program   0x000bf4
               _cinit_scn       code   0x000c20    program   0x00009e
                 UARTCODE       code   0x000cbe    program   0x000088
            .code_uopen.o       code   0x000d46    program   0x00007a
         .code_putsuart.o       code   0x000dc0    program   0x00003c
           .code_uwrite.o       code   0x000dfc    program   0x00002e
              D1KTCYXCODE       code   0x000e2a    program   0x000020
                    .code       code   0x000e4a    program   0x000020
             _startup_scn       code   0x000e6a    program   0x00001c
          .idata_main.o_i    romdata   0x000e86    program   0x00002e
    .config_300001_main.o    romdata   0x300001    program   0x000001
    .config_300002_main.o    romdata   0x300002    program   0x000001
    .config_300003_main.o    romdata   0x300003    program   0x000001
    .config_300005_main.o    romdata   0x300005    program   0x000001
    .config_300006_main.o    romdata   0x300006    program   0x000001
    .config_300008_main.o    romdata   0x300008    program   0x000001
    .config_300009_main.o    romdata   0x300009    program   0x000001
    .config_30000a_main.o    romdata   0x30000a    program   0x000001
    .config_30000b_main.o    romdata   0x30000b    program   0x000001
    .config_30000c_main.o    romdata   0x30000c    program   0x000001
    .config_30000d_main.o    romdata   0x30000d    program   0x000001
                   eedata       code   0xf00000    program   0x000026
                 X_access      udata   0x000000       data   0x000053
                MATH_DATA      udata   0x000053       data   0x00000b
                 .tmpdata      udata   0x00005e       data   0x000004
                DELAYDAT1      udata   0x000062       data   0x000001
            .idata_main.o      idata   0x000080       data   0x00002e
            .udata_main.o      udata   0x0000ae       data   0x00000d
           .udata_c018i.o      udata   0x0000bb       data   0x00000a
                 UARTDATA      udata   0x0000c5       data   0x000002
           .udata_udefs.o      udata   0x0000c7       data   0x000001
          .idata___init.o      idata   0x0000c8       data   0x000000
          .udata___init.o      udata   0x0000c8       data   0x000000
           .idata_udefs.o      idata   0x0000c8       data   0x000000
          .idata_uwrite.o      idata   0x0000c8       data   0x000000
          .udata_uwrite.o      udata   0x0000c8       data   0x000000
           .idata_uopen.o      idata   0x0000c8       data   0x000000
           .udata_uopen.o      udata   0x0000c8       data   0x000000
.idata_SoftwareUARTDelays.o      idata   0x0000c8       data   0x000000
.udata_SoftwareUARTDelays.o      udata   0x0000c8       data   0x000000
        .idata_putsuart.o      idata   0x0000c8       data   0x000000
        .udata_putsuart.o      udata   0x0000c8       data   0x000000
           .idata_c018i.o      idata   0x0000c8       data   0x000000
                   .stack      udata   0x000100       data   0x000100
            SFR_UNBANKED0      udata   0x000f80       data   0x000080



                              Program Memory Usage 
                               Start         End      
                           ---------   ---------      
                            0x000000    0x000013      
                            0x000018    0x000eb3      
                            0x300001    0x300003      
                            0x300005    0x300006      
                            0x300008    0x30000d      
                            0xf00000    0xf00025      
            3809 out of 8472 program addresses used, program memory utilization is 44%



                              Symbols - Sorted by Name
                     Name    Address   Location    Storage File                     
                ---------  ---------  ---------  --------- ---------                
                     CMax   0x0005e2    program     extern C:\Users\Hussein\OneDrive\Documents\FYDP\Software\MIDIMerger\main.c
                    D1K_1   0x000e36    program     static E:\3.46\pic18-lt\cxx-framework\src\traditional\delays\d1ktcyx.asm
                     D1Kx   0x000e34    program     static E:\3.46\pic18-lt\cxx-framework\src\traditional\delays\d1ktcyx.asm
              Delay1KTCYx   0x000e2a    program     extern E:\3.46\pic18-lt\cxx-framework\src\traditional\delays\d1ktcyx.asm
           DelayRXBitUART   0x000010    program     extern C:\PICPRJ\NewMIDIMerger\SoftwareUARTDelays.c
       DelayRXHalfBitUART   0x00000e    program     extern C:\PICPRJ\NewMIDIMerger\SoftwareUARTDelays.c
           DelayTXBitUART   0x000012    program     extern C:\PICPRJ\NewMIDIMerger\SoftwareUARTDelays.c
                  GetChar   0x000d1e    program     static C:\PICPRJ\NewMIDIMerger\readuart.asm
     InterruptHandlerHigh   0x00062e    program     extern C:\Users\Hussein\OneDrive\Documents\FYDP\Software\MIDIMerger\main.c
      InterruptHandlerLow   0x0007a2    program     extern C:\Users\Hussein\OneDrive\Documents\FYDP\Software\MIDIMerger\main.c
      InterruptVectorHigh   0x000008    program     extern C:\Users\Hussein\OneDrive\Documents\FYDP\Software\MIDIMerger\main.c
       InterruptVectorLow   0x000018    program     extern C:\Users\Hussein\OneDrive\Documents\FYDP\Software\MIDIMerger\main.c
                 OpenUART   0x000cbe    program     extern C:\PICPRJ\NewMIDIMerger\openuart.asm
                OpenUSART   0x000d46    program     extern E:\3.46\pic18-lt\cxx-framework\src\pmc_common\USART\uopen.c
               ReadEEPROM   0x000a36    program     extern C:\Users\Hussein\OneDrive\Documents\FYDP\Software\MIDIMerger\main.c
            ReadEEPROMInt   0x000b08    program     extern C:\Users\Hussein\OneDrive\Documents\FYDP\Software\MIDIMerger\main.c
      ReadEEPROMShortLong   0x000a5c    program     extern C:\Users\Hussein\OneDrive\Documents\FYDP\Software\MIDIMerger\main.c
                 ReadUART   0x000d04    program     extern C:\PICPRJ\NewMIDIMerger\readuart.asm
                  SendBit   0x000ce0    program     static C:\PICPRJ\NewMIDIMerger\writuart.asm
                SendStart   0x000ce4    program     static C:\PICPRJ\NewMIDIMerger\writuart.asm
                   TxMIDI   0x000888    program     extern C:\Users\Hussein\OneDrive\Documents\FYDP\Software\MIDIMerger\main.c
                 WaitChar   0x000d0c    program     static C:\PICPRJ\NewMIDIMerger\readuart.asm
              WriteEEPROM   0x0008a8    program     extern C:\Users\Hussein\OneDrive\Documents\FYDP\Software\MIDIMerger\main.c
           WriteEEPROMInt   0x0009c8    program     extern C:\Users\Hussein\OneDrive\Documents\FYDP\Software\MIDIMerger\main.c
     WriteEEPROMShortLong   0x00091e    program     extern C:\Users\Hussein\OneDrive\Documents\FYDP\Software\MIDIMerger\main.c
                WriteUART   0x000ccc    program     extern C:\PICPRJ\NewMIDIMerger\writuart.asm
               WriteUSART   0x000dfc    program     extern E:\3.46\pic18-lt\cxx-framework\src\pmc_common\USART\uwrite.c
        _D1KTCYXCODE_0010   0x000e3a    program     static E:\3.46\pic18-lt\cxx-framework\src\traditional\delays\d1ktcyx.asm
        _D1KTCYXCODE_0016   0x000e40    program     static E:\3.46\pic18-lt\cxx-framework\src\traditional\delays\d1ktcyx.asm
         ___else_lbl00017   0x0003da    program     static                          
         ___else_lbl00019   0x00033e    program     static                          
         ___else_lbl00022   0x0004ae    program     static                          
         ___else_lbl00025   0x00041c    program     static                          
         ___else_lbl00031   0x000526    program     static                          
         ___else_lbl00033   0x0003f8    program     static                          
         ___else_lbl00035   0x0005b0    program     static                          
         ___else_lbl00037   0x0005a2    program     static                          
          ___for_lbl00001   0x0000a6    program     static                          
          ___for_lbl00002   0x0000b2    program     static                          
          ___for_lbl00003   0x000048    program     static                          
          ___for_lbl00004   0x0001b8    program     static                          
          ___for_lbl00005   0x0001c2    program     static                          
          ___for_lbl00007   0x0000d4    program     static                          
          ___for_lbl00010   0x0005c0    program     static                          
          ___for_lbl00011   0x0005cc    program     static                          
          ___for_lbl00039   0x000228    program     static                          
          ___for_lbl00082   0x00086a    program     static                          
          ___for_lbl00083   0x000874    program     static                          
          ___for_lbl00084   0x00083e    program     static                          
           ___if_lbl00006   0x0001b8    program     static                          
           ___if_lbl00014   0x00032a    program     static                          
           ___if_lbl00015   0x0003d8    program     static                          
           ___if_lbl00016   0x0003e2    program     static                          
           ___if_lbl00018   0x0003ee    program     static                          
           ___if_lbl00020   0x0004ac    program     static                          
           ___if_lbl00021   0x0004ca    program     static                          
           ___if_lbl00023   0x0004ca    program     static                          
           ___if_lbl00024   0x0004ca    program     static                          
           ___if_lbl00026   0x000524    program     static                          
           ___if_lbl00028   0x000590    program     static                          
           ___if_lbl00029   0x000590    program     static                          
           ___if_lbl00030   0x000598    program     static                          
           ___if_lbl00032   0x0005a0    program     static                          
           ___if_lbl00034   0x0005b2    program     static                          
           ___if_lbl00036   0x0005b2    program     static                          
           ___if_lbl00038   0x0005c0    program     static                          
           ___if_lbl00057   0x00065c    program     static                          
           ___if_lbl00059   0x00067a    program     static                          
           ___if_lbl00061   0x00069a    program     static                          
           ___if_lbl00063   0x0006d6    program     static                          
           ___if_lbl00064   0x0006e6    program     static                          
           ___if_lbl00065   0x0006e6    program     static                          
           ___if_lbl00067   0x000726    program     static                          
           ___if_lbl00068   0x00072c    program     static                          
           ___if_lbl00070   0x00076c    program     static                          
           ___if_lbl00071   0x000772    program     static                          
           ___if_lbl00072   0x000792    program     static                          
           ___if_lbl00073   0x000792    program     static                          
       ___return_lbl00000   0x000004    program     static                          
       ___return_lbl00000   0x0005ce    program     static                          
       ___return_lbl00001   0x000e84    program     static                          
       ___return_lbl00002   0x000cbc    program     static                          
       ___return_lbl00053   0x00000c    program     static                          
       ___return_lbl00054   0x00001c    program     static                          
       ___return_lbl00055   0x000792    program     static                          
       ___return_lbl00081   0x000874    program     static                          
        ___while_lbl00008   0x000220    program     static                          
        ___while_lbl00009   0x0005ce    program     static                          
        ___while_lbl00012   0x000276    program     static                          
        ___while_lbl00013   0x0005b4    program     static                          
               __config_0   0x300001    program     static C:\Users\Hussein\OneDrive\Documents\FYDP\Software\MIDIMerger\main.c
               __config_1   0x300002    program     static C:\Users\Hussein\OneDrive\Documents\FYDP\Software\MIDIMerger\main.c
              __config_10   0x30000d    program     static C:\Users\Hussein\OneDrive\Documents\FYDP\Software\MIDIMerger\main.c
               __config_2   0x300003    program     static C:\Users\Hussein\OneDrive\Documents\FYDP\Software\MIDIMerger\main.c
               __config_3   0x300005    program     static C:\Users\Hussein\OneDrive\Documents\FYDP\Software\MIDIMerger\main.c
               __config_4   0x300006    program     static C:\Users\Hussein\OneDrive\Documents\FYDP\Software\MIDIMerger\main.c
               __config_5   0x300008    program     static C:\Users\Hussein\OneDrive\Documents\FYDP\Software\MIDIMerger\main.c
               __config_6   0x300009    program     static C:\Users\Hussein\OneDrive\Documents\FYDP\Software\MIDIMerger\main.c
               __config_7   0x30000a    program     static C:\Users\Hussein\OneDrive\Documents\FYDP\Software\MIDIMerger\main.c
               __config_8   0x30000b    program     static C:\Users\Hussein\OneDrive\Documents\FYDP\Software\MIDIMerger\main.c
               __config_9   0x30000c    program     static C:\Users\Hussein\OneDrive\Documents\FYDP\Software\MIDIMerger\main.c
                   __init   0x000006    program     extern E:\3.46\pic18-lt\cxx-framework\src\traditional\stdclib\__init.c
               __tmplbl_0   0x000564    program     static                          
               __tmplbl_1   0x00055e    program     static                          
              __tmplbl_10   0x0006f2    program     static                          
              __tmplbl_11   0x0006ec    program     static                          
              __tmplbl_12   0x000738    program     static                          
              __tmplbl_13   0x000732    program     static                          
              __tmplbl_16   0x00085e    program     static                          
               __tmplbl_2   0x00064c    program     static                          
               __tmplbl_3   0x000646    program     static                          
               __tmplbl_4   0x000668    program     static                          
               __tmplbl_5   0x000662    program     static                          
               __tmplbl_6   0x000686    program     static                          
               __tmplbl_7   0x000680    program     static                          
               __tmplbl_8   0x0006a6    program     static                          
               __tmplbl_9   0x0006a0    program     static                          
            __zero_memory   0x000e4a    program     extern E:\3.46\pic18-lt\cxx-framework\src\traditional\proc\p18f4320.asm
                _do_cinit   0x000c20    program     extern E:\3.46\pic18-lt\cxx-framework\src\traditional\startup\c018i.c
                   _entry   0x000000    program     extern E:\3.46\pic18-lt\cxx-framework\src\traditional\startup\c018i.c
                 _startup   0x000e6a    program     extern E:\3.46\pic18-lt\cxx-framework\src\traditional\startup\c018i.c
                compare_l   0x000e60    program     static E:\3.46\pic18-lt\cxx-framework\src\traditional\proc\p18f4320.asm
                copy_loop   0x000c92    program     static                          
            copy_one_byte   0x000c98    program     static                          
                 delay_ms   0x0007cc    program     extern C:\Users\Hussein\OneDrive\Documents\FYDP\Software\MIDIMerger\main.c
                 delay_us   0x00082e    program     extern C:\Users\Hussein\OneDrive\Documents\FYDP\Software\MIDIMerger\main.c
                     done   0x000cbc    program     static                          
             done_copying   0x000ca6    program     static                          
                     fin0   0x0006e6    program     static                          
                     fin1   0x00072c    program     static                          
                     fin2   0x000772    program     static                          
                     loop   0x000e7a    program     static                          
                   loop_h   0x000e58    program     static E:\3.46\pic18-lt\cxx-framework\src\traditional\proc\p18f4320.asm
                   loop_l   0x000e62    program     static E:\3.46\pic18-lt\cxx-framework\src\traditional\proc\p18f4320.asm
                     main   0x00002c    program     extern C:\Users\Hussein\OneDrive\Documents\FYDP\Software\MIDIMerger\main.c
         midi_assign_copy   0xf00010    program     extern ..\eepromstuff.asm       
         midi_filter_copy   0xf00020    program     extern ..\eepromstuff.asm       
     midi_min_volume_copy   0xf00000    program     extern ..\eepromstuff.asm       
                 putsUART   0x000dc0    program     extern C:\PICPRJ\NewMIDIMerger\putsuart.c
               startupLED   0x000b7a    program     extern C:\Users\Hussein\OneDrive\Documents\FYDP\Software\MIDIMerger\main.c
                     test   0x000c3a    program     static                          
                  the_end   0xf00026    program     static ..\eepromstuff.asm       
               zero_block   0x000e58    program     static E:\3.46\pic18-lt\cxx-framework\src\traditional\proc\p18f4320.asm
                   ADCON0   0x000fc2       data     extern E:\3.46\pic18-lt\cxx-framework\src\traditional\proc\p18f4320.asm
               ADCON0bits   0x000fc2       data     extern E:\3.46\pic18-lt\cxx-framework\src\traditional\proc\p18f4320.asm
                   ADCON1   0x000fc1       data     extern E:\3.46\pic18-lt\cxx-framework\src\traditional\proc\p18f4320.asm
               ADCON1bits   0x000fc1       data     extern E:\3.46\pic18-lt\cxx-framework\src\traditional\proc\p18f4320.asm
                   ADCON2   0x000fc0       data     extern E:\3.46\pic18-lt\cxx-framework\src\traditional\proc\p18f4320.asm
               ADCON2bits   0x000fc0       data     extern E:\3.46\pic18-lt\cxx-framework\src\traditional\proc\p18f4320.asm
                    ADRES   0x000fc3       data     extern E:\3.46\pic18-lt\cxx-framework\src\traditional\proc\p18f4320.asm
                   ADRESH   0x000fc4       data     extern E:\3.46\pic18-lt\cxx-framework\src\traditional\proc\p18f4320.asm
                   ADRESL   0x000fc3       data     extern E:\3.46\pic18-lt\cxx-framework\src\traditional\proc\p18f4320.asm
                      BSR   0x000fe0       data     extern E:\3.46\pic18-lt\cxx-framework\src\traditional\proc\p18f4320.asm
                 BitCount   0x0000c6       data     extern C:\PICPRJ\NewMIDIMerger\uartdata.asm
                  CCP1CON   0x000fbd       data     extern E:\3.46\pic18-lt\cxx-framework\src\traditional\proc\p18f4320.asm
              CCP1CONbits   0x000fbd       data     extern E:\3.46\pic18-lt\cxx-framework\src\traditional\proc\p18f4320.asm
                  CCP2CON   0x000fba       data     extern E:\3.46\pic18-lt\cxx-framework\src\traditional\proc\p18f4320.asm
              CCP2CONbits   0x000fba       data     extern E:\3.46\pic18-lt\cxx-framework\src\traditional\proc\p18f4320.asm
                    CCPR1   0x000fbe       data     extern E:\3.46\pic18-lt\cxx-framework\src\traditional\proc\p18f4320.asm
                   CCPR1H   0x000fbf       data     extern E:\3.46\pic18-lt\cxx-framework\src\traditional\proc\p18f4320.asm
                   CCPR1L   0x000fbe       data     extern E:\3.46\pic18-lt\cxx-framework\src\traditional\proc\p18f4320.asm
                    CCPR2   0x000fbb       data     extern E:\3.46\pic18-lt\cxx-framework\src\traditional\proc\p18f4320.asm
                   CCPR2H   0x000fbc       data     extern E:\3.46\pic18-lt\cxx-framework\src\traditional\proc\p18f4320.asm
                   CCPR2L   0x000fbb       data     extern E:\3.46\pic18-lt\cxx-framework\src\traditional\proc\p18f4320.asm
                    CMCON   0x000fb4       data     extern E:\3.46\pic18-lt\cxx-framework\src\traditional\proc\p18f4320.asm
                CMCONbits   0x000fb4       data     extern E:\3.46\pic18-lt\cxx-framework\src\traditional\proc\p18f4320.asm
                   CVRCON   0x000fb5       data     extern E:\3.46\pic18-lt\cxx-framework\src\traditional\proc\p18f4320.asm
               CVRCONbits   0x000fb5       data     extern E:\3.46\pic18-lt\cxx-framework\src\traditional\proc\p18f4320.asm
                     DDRA   0x000f92       data     extern E:\3.46\pic18-lt\cxx-framework\src\traditional\proc\p18f4320.asm
                 DDRAbits   0x000f92       data     extern E:\3.46\pic18-lt\cxx-framework\src\traditional\proc\p18f4320.asm
                     DDRB   0x000f93       data     extern E:\3.46\pic18-lt\cxx-framework\src\traditional\proc\p18f4320.asm
                 DDRBbits   0x000f93       data     extern E:\3.46\pic18-lt\cxx-framework\src\traditional\proc\p18f4320.asm
                     DDRC   0x000f94       data     extern E:\3.46\pic18-lt\cxx-framework\src\traditional\proc\p18f4320.asm
                 DDRCbits   0x000f94       data     extern E:\3.46\pic18-lt\cxx-framework\src\traditional\proc\p18f4320.asm
                     DDRD   0x000f95       data     extern E:\3.46\pic18-lt\cxx-framework\src\traditional\proc\p18f4320.asm
                 DDRDbits   0x000f95       data     extern E:\3.46\pic18-lt\cxx-framework\src\traditional\proc\p18f4320.asm
                     DDRE   0x000f96       data     extern E:\3.46\pic18-lt\cxx-framework\src\traditional\proc\p18f4320.asm
                 DDREbits   0x000f96       data     extern E:\3.46\pic18-lt\cxx-framework\src\traditional\proc\p18f4320.asm
            DelayCounter1   0x000062       data     extern E:\3.46\pic18-lt\cxx-framework\src\traditional\delays\delayd1.asm
                   ECCPAS   0x000fb6       data     extern E:\3.46\pic18-lt\cxx-framework\src\traditional\proc\p18f4320.asm
               ECCPASbits   0x000fb6       data     extern E:\3.46\pic18-lt\cxx-framework\src\traditional\proc\p18f4320.asm
                    EEADR   0x000fa9       data     extern E:\3.46\pic18-lt\cxx-framework\src\traditional\proc\p18f4320.asm
                   EECON1   0x000fa6       data     extern E:\3.46\pic18-lt\cxx-framework\src\traditional\proc\p18f4320.asm
               EECON1bits   0x000fa6       data     extern E:\3.46\pic18-lt\cxx-framework\src\traditional\proc\p18f4320.asm
                   EECON2   0x000fa7       data     extern E:\3.46\pic18-lt\cxx-framework\src\traditional\proc\p18f4320.asm
                   EEDATA   0x000fa8       data     extern E:\3.46\pic18-lt\cxx-framework\src\traditional\proc\p18f4320.asm
                     FSR0   0x000fe9       data     extern E:\3.46\pic18-lt\cxx-framework\src\traditional\proc\p18f4320.asm
                    FSR0H   0x000fea       data     extern E:\3.46\pic18-lt\cxx-framework\src\traditional\proc\p18f4320.asm
                    FSR0L   0x000fe9       data     extern E:\3.46\pic18-lt\cxx-framework\src\traditional\proc\p18f4320.asm
                     FSR1   0x000fe1       data     extern E:\3.46\pic18-lt\cxx-framework\src\traditional\proc\p18f4320.asm
                    FSR1H   0x000fe2       data     extern E:\3.46\pic18-lt\cxx-framework\src\traditional\proc\p18f4320.asm
                    FSR1L   0x000fe1       data     extern E:\3.46\pic18-lt\cxx-framework\src\traditional\proc\p18f4320.asm
                     FSR2   0x000fd9       data     extern E:\3.46\pic18-lt\cxx-framework\src\traditional\proc\p18f4320.asm
                    FSR2H   0x000fda       data     extern E:\3.46\pic18-lt\cxx-framework\src\traditional\proc\p18f4320.asm
                    FSR2L   0x000fd9       data     extern E:\3.46\pic18-lt\cxx-framework\src\traditional\proc\p18f4320.asm
                    INDF0   0x000fef       data     extern E:\3.46\pic18-lt\cxx-framework\src\traditional\proc\p18f4320.asm
                    INDF1   0x000fe7       data     extern E:\3.46\pic18-lt\cxx-framework\src\traditional\proc\p18f4320.asm
                    INDF2   0x000fdf       data     extern E:\3.46\pic18-lt\cxx-framework\src\traditional\proc\p18f4320.asm
                   INTCON   0x000ff2       data     extern E:\3.46\pic18-lt\cxx-framework\src\traditional\proc\p18f4320.asm
                  INTCON2   0x000ff1       data     extern E:\3.46\pic18-lt\cxx-framework\src\traditional\proc\p18f4320.asm
              INTCON2bits   0x000ff1       data     extern E:\3.46\pic18-lt\cxx-framework\src\traditional\proc\p18f4320.asm
                  INTCON3   0x000ff0       data     extern E:\3.46\pic18-lt\cxx-framework\src\traditional\proc\p18f4320.asm
              INTCON3bits   0x000ff0       data     extern E:\3.46\pic18-lt\cxx-framework\src\traditional\proc\p18f4320.asm
               INTCONbits   0x000ff2       data     extern E:\3.46\pic18-lt\cxx-framework\src\traditional\proc\p18f4320.asm
                     IPR1   0x000f9f       data     extern E:\3.46\pic18-lt\cxx-framework\src\traditional\proc\p18f4320.asm
                 IPR1bits   0x000f9f       data     extern E:\3.46\pic18-lt\cxx-framework\src\traditional\proc\p18f4320.asm
                     IPR2   0x000fa2       data     extern E:\3.46\pic18-lt\cxx-framework\src\traditional\proc\p18f4320.asm
                 IPR2bits   0x000fa2       data     extern E:\3.46\pic18-lt\cxx-framework\src\traditional\proc\p18f4320.asm
                     LATA   0x000f89       data     extern E:\3.46\pic18-lt\cxx-framework\src\traditional\proc\p18f4320.asm
                 LATAbits   0x000f89       data     extern E:\3.46\pic18-lt\cxx-framework\src\traditional\proc\p18f4320.asm
                     LATB   0x000f8a       data     extern E:\3.46\pic18-lt\cxx-framework\src\traditional\proc\p18f4320.asm
                 LATBbits   0x000f8a       data     extern E:\3.46\pic18-lt\cxx-framework\src\traditional\proc\p18f4320.asm
                     LATC   0x000f8b       data     extern E:\3.46\pic18-lt\cxx-framework\src\traditional\proc\p18f4320.asm
                 LATCbits   0x000f8b       data     extern E:\3.46\pic18-lt\cxx-framework\src\traditional\proc\p18f4320.asm
                     LATD   0x000f8c       data     extern E:\3.46\pic18-lt\cxx-framework\src\traditional\proc\p18f4320.asm
                 LATDbits   0x000f8c       data     extern E:\3.46\pic18-lt\cxx-framework\src\traditional\proc\p18f4320.asm
                     LATE   0x000f8d       data     extern E:\3.46\pic18-lt\cxx-framework\src\traditional\proc\p18f4320.asm
                 LATEbits   0x000f8d       data     extern E:\3.46\pic18-lt\cxx-framework\src\traditional\proc\p18f4320.asm
                   LVDCON   0x000fd2       data     extern E:\3.46\pic18-lt\cxx-framework\src\traditional\proc\p18f4320.asm
               LVDCONbits   0x000fd2       data     extern E:\3.46\pic18-lt\cxx-framework\src\traditional\proc\p18f4320.asm
                   OSCCON   0x000fd3       data     extern E:\3.46\pic18-lt\cxx-framework\src\traditional\proc\p18f4320.asm
               OSCCONbits   0x000fd3       data     extern E:\3.46\pic18-lt\cxx-framework\src\traditional\proc\p18f4320.asm
                  OSCTUN2   0x000f9a       data     extern E:\3.46\pic18-lt\cxx-framework\src\traditional\proc\p18f4320.asm
              OSCTUN2bits   0x000f9a       data     extern E:\3.46\pic18-lt\cxx-framework\src\traditional\proc\p18f4320.asm
                  OSCTUNE   0x000f9b       data     extern E:\3.46\pic18-lt\cxx-framework\src\traditional\proc\p18f4320.asm
              OSCTUNEbits   0x000f9b       data     extern E:\3.46\pic18-lt\cxx-framework\src\traditional\proc\p18f4320.asm
                       PC   0x000ff9       data     extern E:\3.46\pic18-lt\cxx-framework\src\traditional\proc\p18f4320.asm
                      PCL   0x000ff9       data     extern E:\3.46\pic18-lt\cxx-framework\src\traditional\proc\p18f4320.asm
                   PCLATH   0x000ffa       data     extern E:\3.46\pic18-lt\cxx-framework\src\traditional\proc\p18f4320.asm
                   PCLATU   0x000ffb       data     extern E:\3.46\pic18-lt\cxx-framework\src\traditional\proc\p18f4320.asm
                     PIE1   0x000f9d       data     extern E:\3.46\pic18-lt\cxx-framework\src\traditional\proc\p18f4320.asm
                 PIE1bits   0x000f9d       data     extern E:\3.46\pic18-lt\cxx-framework\src\traditional\proc\p18f4320.asm
                     PIE2   0x000fa0       data     extern E:\3.46\pic18-lt\cxx-framework\src\traditional\proc\p18f4320.asm
                 PIE2bits   0x000fa0       data     extern E:\3.46\pic18-lt\cxx-framework\src\traditional\proc\p18f4320.asm
                     PIR1   0x000f9e       data     extern E:\3.46\pic18-lt\cxx-framework\src\traditional\proc\p18f4320.asm
                 PIR1bits   0x000f9e       data     extern E:\3.46\pic18-lt\cxx-framework\src\traditional\proc\p18f4320.asm
                     PIR2   0x000fa1       data     extern E:\3.46\pic18-lt\cxx-framework\src\traditional\proc\p18f4320.asm
                 PIR2bits   0x000fa1       data     extern E:\3.46\pic18-lt\cxx-framework\src\traditional\proc\p18f4320.asm
                   PLUSW0   0x000feb       data     extern E:\3.46\pic18-lt\cxx-framework\src\traditional\proc\p18f4320.asm
                   PLUSW1   0x000fe3       data     extern E:\3.46\pic18-lt\cxx-framework\src\traditional\proc\p18f4320.asm
                   PLUSW2   0x000fdb       data     extern E:\3.46\pic18-lt\cxx-framework\src\traditional\proc\p18f4320.asm
                    PORTA   0x000f80       data     extern E:\3.46\pic18-lt\cxx-framework\src\traditional\proc\p18f4320.asm
                PORTAbits   0x000f80       data     extern E:\3.46\pic18-lt\cxx-framework\src\traditional\proc\p18f4320.asm
                    PORTB   0x000f81       data     extern E:\3.46\pic18-lt\cxx-framework\src\traditional\proc\p18f4320.asm
                PORTBbits   0x000f81       data     extern E:\3.46\pic18-lt\cxx-framework\src\traditional\proc\p18f4320.asm
                    PORTC   0x000f82       data     extern E:\3.46\pic18-lt\cxx-framework\src\traditional\proc\p18f4320.asm
                PORTCbits   0x000f82       data     extern E:\3.46\pic18-lt\cxx-framework\src\traditional\proc\p18f4320.asm
                    PORTD   0x000f83       data     extern E:\3.46\pic18-lt\cxx-framework\src\traditional\proc\p18f4320.asm
                PORTDbits   0x000f83       data     extern E:\3.46\pic18-lt\cxx-framework\src\traditional\proc\p18f4320.asm
                    PORTE   0x000f84       data     extern E:\3.46\pic18-lt\cxx-framework\src\traditional\proc\p18f4320.asm
                PORTEbits   0x000f84       data     extern E:\3.46\pic18-lt\cxx-framework\src\traditional\proc\p18f4320.asm
                 POSTDEC0   0x000fed       data     extern E:\3.46\pic18-lt\cxx-framework\src\traditional\proc\p18f4320.asm
                 POSTDEC1   0x000fe5       data     extern E:\3.46\pic18-lt\cxx-framework\src\traditional\proc\p18f4320.asm
                 POSTDEC2   0x000fdd       data     extern E:\3.46\pic18-lt\cxx-framework\src\traditional\proc\p18f4320.asm
                 POSTINC0   0x000fee       data     extern E:\3.46\pic18-lt\cxx-framework\src\traditional\proc\p18f4320.asm
                 POSTINC1   0x000fe6       data     extern E:\3.46\pic18-lt\cxx-framework\src\traditional\proc\p18f4320.asm
                 POSTINC2   0x000fde       data     extern E:\3.46\pic18-lt\cxx-framework\src\traditional\proc\p18f4320.asm
                      PR2   0x000fcb       data     extern E:\3.46\pic18-lt\cxx-framework\src\traditional\proc\p18f4320.asm
                  PREINC0   0x000fec       data     extern E:\3.46\pic18-lt\cxx-framework\src\traditional\proc\p18f4320.asm
                  PREINC1   0x000fe4       data     extern E:\3.46\pic18-lt\cxx-framework\src\traditional\proc\p18f4320.asm
                  PREINC2   0x000fdc       data     extern E:\3.46\pic18-lt\cxx-framework\src\traditional\proc\p18f4320.asm
                     PROD   0x000ff3       data     extern E:\3.46\pic18-lt\cxx-framework\src\traditional\proc\p18f4320.asm
                    PRODH   0x000ff4       data     extern E:\3.46\pic18-lt\cxx-framework\src\traditional\proc\p18f4320.asm
                    PRODL   0x000ff3       data     extern E:\3.46\pic18-lt\cxx-framework\src\traditional\proc\p18f4320.asm
                  PWM1CON   0x000fb7       data     extern E:\3.46\pic18-lt\cxx-framework\src\traditional\proc\p18f4320.asm
              PWM1CONbits   0x000fb7       data     extern E:\3.46\pic18-lt\cxx-framework\src\traditional\proc\p18f4320.asm
                     RCON   0x000fd0       data     extern E:\3.46\pic18-lt\cxx-framework\src\traditional\proc\p18f4320.asm
                 RCONbits   0x000fd0       data     extern E:\3.46\pic18-lt\cxx-framework\src\traditional\proc\p18f4320.asm
                    RCREG   0x000fae       data     extern E:\3.46\pic18-lt\cxx-framework\src\traditional\proc\p18f4320.asm
                    RCSTA   0x000fab       data     extern E:\3.46\pic18-lt\cxx-framework\src\traditional\proc\p18f4320.asm
                RCSTAbits   0x000fab       data     extern E:\3.46\pic18-lt\cxx-framework\src\traditional\proc\p18f4320.asm
                     SIGN   0x00005c       data     extern E:\3.46\pic18-lt\cxx-framework\src\traditional\math\cmath18.asm
                    SPBRG   0x000faf       data     extern E:\3.46\pic18-lt\cxx-framework\src\traditional\proc\p18f4320.asm
                   SSPADD   0x000fc8       data     extern E:\3.46\pic18-lt\cxx-framework\src\traditional\proc\p18f4320.asm
                   SSPBUF   0x000fc9       data     extern E:\3.46\pic18-lt\cxx-framework\src\traditional\proc\p18f4320.asm
                  SSPCON1   0x000fc6       data     extern E:\3.46\pic18-lt\cxx-framework\src\traditional\proc\p18f4320.asm
              SSPCON1bits   0x000fc6       data     extern E:\3.46\pic18-lt\cxx-framework\src\traditional\proc\p18f4320.asm
                  SSPCON2   0x000fc5       data     extern E:\3.46\pic18-lt\cxx-framework\src\traditional\proc\p18f4320.asm
              SSPCON2bits   0x000fc5       data     extern E:\3.46\pic18-lt\cxx-framework\src\traditional\proc\p18f4320.asm
                  SSPSTAT   0x000fc7       data     extern E:\3.46\pic18-lt\cxx-framework\src\traditional\proc\p18f4320.asm
              SSPSTATbits   0x000fc7       data     extern E:\3.46\pic18-lt\cxx-framework\src\traditional\proc\p18f4320.asm
                   STATUS   0x000fd8       data     extern E:\3.46\pic18-lt\cxx-framework\src\traditional\proc\p18f4320.asm
               STATUSbits   0x000fd8       data     extern E:\3.46\pic18-lt\cxx-framework\src\traditional\proc\p18f4320.asm
                   STKPTR   0x000ffc       data     extern E:\3.46\pic18-lt\cxx-framework\src\traditional\proc\p18f4320.asm
               STKPTRbits   0x000ffc       data     extern E:\3.46\pic18-lt\cxx-framework\src\traditional\proc\p18f4320.asm
                    T0CON   0x000fd5       data     extern E:\3.46\pic18-lt\cxx-framework\src\traditional\proc\p18f4320.asm
                T0CONbits   0x000fd5       data     extern E:\3.46\pic18-lt\cxx-framework\src\traditional\proc\p18f4320.asm
                    T1CON   0x000fcd       data     extern E:\3.46\pic18-lt\cxx-framework\src\traditional\proc\p18f4320.asm
                T1CONbits   0x000fcd       data     extern E:\3.46\pic18-lt\cxx-framework\src\traditional\proc\p18f4320.asm
                    T2CON   0x000fca       data     extern E:\3.46\pic18-lt\cxx-framework\src\traditional\proc\p18f4320.asm
                T2CONbits   0x000fca       data     extern E:\3.46\pic18-lt\cxx-framework\src\traditional\proc\p18f4320.asm
                    T3CON   0x000fb1       data     extern E:\3.46\pic18-lt\cxx-framework\src\traditional\proc\p18f4320.asm
                T3CONbits   0x000fb1       data     extern E:\3.46\pic18-lt\cxx-framework\src\traditional\proc\p18f4320.asm
                   TABLAT   0x000ff5       data     extern E:\3.46\pic18-lt\cxx-framework\src\traditional\proc\p18f4320.asm
                   TBLPTR   0x000ff6       data     extern E:\3.46\pic18-lt\cxx-framework\src\traditional\proc\p18f4320.asm
                  TBLPTRH   0x000ff7       data     extern E:\3.46\pic18-lt\cxx-framework\src\traditional\proc\p18f4320.asm
                  TBLPTRL   0x000ff6       data     extern E:\3.46\pic18-lt\cxx-framework\src\traditional\proc\p18f4320.asm
                  TBLPTRU   0x000ff8       data     extern E:\3.46\pic18-lt\cxx-framework\src\traditional\proc\p18f4320.asm
                    TMR0H   0x000fd7       data     extern E:\3.46\pic18-lt\cxx-framework\src\traditional\proc\p18f4320.asm
                    TMR0L   0x000fd6       data     extern E:\3.46\pic18-lt\cxx-framework\src\traditional\proc\p18f4320.asm
                    TMR1H   0x000fcf       data     extern E:\3.46\pic18-lt\cxx-framework\src\traditional\proc\p18f4320.asm
                    TMR1L   0x000fce       data     extern E:\3.46\pic18-lt\cxx-framework\src\traditional\proc\p18f4320.asm
                     TMR2   0x000fcc       data     extern E:\3.46\pic18-lt\cxx-framework\src\traditional\proc\p18f4320.asm
                    TMR3H   0x000fb3       data     extern E:\3.46\pic18-lt\cxx-framework\src\traditional\proc\p18f4320.asm
                    TMR3L   0x000fb2       data     extern E:\3.46\pic18-lt\cxx-framework\src\traditional\proc\p18f4320.asm
                      TOS   0x000ffd       data     extern E:\3.46\pic18-lt\cxx-framework\src\traditional\proc\p18f4320.asm
                     TOSH   0x000ffe       data     extern E:\3.46\pic18-lt\cxx-framework\src\traditional\proc\p18f4320.asm
                     TOSL   0x000ffd       data     extern E:\3.46\pic18-lt\cxx-framework\src\traditional\proc\p18f4320.asm
                     TOSU   0x000fff       data     extern E:\3.46\pic18-lt\cxx-framework\src\traditional\proc\p18f4320.asm
                    TRISA   0x000f92       data     extern E:\3.46\pic18-lt\cxx-framework\src\traditional\proc\p18f4320.asm
                TRISAbits   0x000f92       data     extern E:\3.46\pic18-lt\cxx-framework\src\traditional\proc\p18f4320.asm
                    TRISB   0x000f93       data     extern E:\3.46\pic18-lt\cxx-framework\src\traditional\proc\p18f4320.asm
                TRISBbits   0x000f93       data     extern E:\3.46\pic18-lt\cxx-framework\src\traditional\proc\p18f4320.asm
                    TRISC   0x000f94       data     extern E:\3.46\pic18-lt\cxx-framework\src\traditional\proc\p18f4320.asm
                TRISCbits   0x000f94       data     extern E:\3.46\pic18-lt\cxx-framework\src\traditional\proc\p18f4320.asm
                    TRISD   0x000f95       data     extern E:\3.46\pic18-lt\cxx-framework\src\traditional\proc\p18f4320.asm
                TRISDbits   0x000f95       data     extern E:\3.46\pic18-lt\cxx-framework\src\traditional\proc\p18f4320.asm
                    TRISE   0x000f96       data     extern E:\3.46\pic18-lt\cxx-framework\src\traditional\proc\p18f4320.asm
                TRISEbits   0x000f96       data     extern E:\3.46\pic18-lt\cxx-framework\src\traditional\proc\p18f4320.asm
                    TXREG   0x000fad       data     extern E:\3.46\pic18-lt\cxx-framework\src\traditional\proc\p18f4320.asm
                    TXSTA   0x000fac       data     extern E:\3.46\pic18-lt\cxx-framework\src\traditional\proc\p18f4320.asm
                TXSTAbits   0x000fac       data     extern E:\3.46\pic18-lt\cxx-framework\src\traditional\proc\p18f4320.asm
             USART_Status   0x0000c7       data     extern E:\3.46\pic18-lt\cxx-framework\src\pmc_common\USART\udefs.c
                        W   0x000fe8       data     extern E:\3.46\pic18-lt\cxx-framework\src\traditional\proc\p18f4320.asm
                   WDTCON   0x000fd1       data     extern E:\3.46\pic18-lt\cxx-framework\src\traditional\proc\p18f4320.asm
               WDTCONbits   0x000fd1       data     extern E:\3.46\pic18-lt\cxx-framework\src\traditional\proc\p18f4320.asm
                     WREG   0x000fe8       data     extern E:\3.46\pic18-lt\cxx-framework\src\traditional\proc\p18f4320.asm
                 __AARGB0   0x00005a       data     extern E:\3.46\pic18-lt\cxx-framework\src\traditional\math\aarg.asm
                 __AARGB1   0x000059       data     extern E:\3.46\pic18-lt\cxx-framework\src\traditional\math\aarg.asm
                 __AARGB2   0x000058       data     extern E:\3.46\pic18-lt\cxx-framework\src\traditional\math\aarg.asm
                 __AARGB3   0x000057       data     extern E:\3.46\pic18-lt\cxx-framework\src\traditional\math\aarg.asm
                 __AARGB4   0x000056       data     extern E:\3.46\pic18-lt\cxx-framework\src\traditional\math\aarg.asm
                 __AARGB5   0x000055       data     extern E:\3.46\pic18-lt\cxx-framework\src\traditional\math\aarg.asm
                 __AARGB6   0x000054       data     extern E:\3.46\pic18-lt\cxx-framework\src\traditional\math\aarg.asm
                 __AARGB7   0x000053       data     extern E:\3.46\pic18-lt\cxx-framework\src\traditional\math\aarg.asm
                   __AEXP   0x00005b       data     extern E:\3.46\pic18-lt\cxx-framework\src\traditional\math\aarg.asm
                __FPFLAGS   0x00005d       data     extern E:\3.46\pic18-lt\cxx-framework\src\traditional\math\cmath18.asm
            __FPFLAGSbits   0x00005d       data     extern E:\3.46\pic18-lt\cxx-framework\src\traditional\math\cmath18.asm
                  __REMB0   0x000056       data     extern E:\3.46\pic18-lt\cxx-framework\src\traditional\math\aarg.asm
                  __REMB1   0x000055       data     extern E:\3.46\pic18-lt\cxx-framework\src\traditional\math\aarg.asm
                  __REMB2   0x000054       data     extern E:\3.46\pic18-lt\cxx-framework\src\traditional\math\aarg.asm
                  __REMB3   0x000053       data     extern E:\3.46\pic18-lt\cxx-framework\src\traditional\math\aarg.asm
                  __tmp_0   0x00005e       data     static C:\Users\Hussein\OneDrive\Documents\FYDP\Software\MIDIMerger\main.c
                assign_to   0x0000b9       data     extern C:\Users\Hussein\OneDrive\Documents\FYDP\Software\MIDIMerger\main.c
                     buf0   0x000000       data     extern C:\Users\Hussein\OneDrive\Documents\FYDP\Software\MIDIMerger\main.c
                     buf1   0x000010       data     extern C:\Users\Hussein\OneDrive\Documents\FYDP\Software\MIDIMerger\main.c
                     buf2   0x000020       data     extern C:\Users\Hussein\OneDrive\Documents\FYDP\Software\MIDIMerger\main.c
                     buf3   0x000030       data     extern C:\Users\Hussein\OneDrive\Documents\FYDP\Software\MIDIMerger\main.c
                   bufptr   0x000080       data     extern C:\Users\Hussein\OneDrive\Documents\FYDP\Software\MIDIMerger\main.c
                   curbuf   0x0000ae       data     extern C:\Users\Hussein\OneDrive\Documents\FYDP\Software\MIDIMerger\main.c
                curr_byte   0x0000be       data     static E:\3.46\pic18-lt\cxx-framework\src\traditional\startup\c018i.c
               curr_entry   0x0000c0       data     static E:\3.46\pic18-lt\cxx-framework\src\traditional\startup\c018i.c
                 data_ptr   0x0000c2       data     static E:\3.46\pic18-lt\cxx-framework\src\traditional\startup\c018i.c
      expected_midi_bytes   0x0000ba       data     extern C:\Users\Hussein\OneDrive\Documents\FYDP\Software\MIDIMerger\main.c
                   filter   0x0000b8       data     extern C:\Users\Hussein\OneDrive\Documents\FYDP\Software\MIDIMerger\main.c
                 in_index   0x000046       data     extern C:\Users\Hussein\OneDrive\Documents\FYDP\Software\MIDIMerger\main.c
          interpret_level   0x000052       data     extern C:\Users\Hussein\OneDrive\Documents\FYDP\Software\MIDIMerger\main.c
              midi_assign   0x000098       data     extern C:\Users\Hussein\OneDrive\Documents\FYDP\Software\MIDIMerger\main.c
                midi_byte   0x00004a       data     extern C:\Users\Hussein\OneDrive\Documents\FYDP\Software\MIDIMerger\main.c
              midi_filter   0x0000a8       data     extern C:\Users\Hussein\OneDrive\Documents\FYDP\Software\MIDIMerger\main.c
          midi_min_volume   0x000088       data     extern C:\Users\Hussein\OneDrive\Documents\FYDP\Software\MIDIMerger\main.c
           midi_runstatus   0x0000b0       data     extern C:\Users\Hussein\OneDrive\Documents\FYDP\Software\MIDIMerger\main.c
             midi_timeout   0x00004b       data     extern C:\Users\Hussein\OneDrive\Documents\FYDP\Software\MIDIMerger\main.c
                out_index   0x0000b4       data     extern C:\Users\Hussein\OneDrive\Documents\FYDP\Software\MIDIMerger\main.c
                     prom   0x0000bb       data     static E:\3.46\pic18-lt\cxx-framework\src\traditional\startup\c018i.c
             suart0_count   0x000040       data     extern C:\Users\Hussein\OneDrive\Documents\FYDP\Software\MIDIMerger\main.c
                suart0_in   0x000043       data     extern C:\Users\Hussein\OneDrive\Documents\FYDP\Software\MIDIMerger\main.c
             suart1_count   0x000041       data     extern C:\Users\Hussein\OneDrive\Documents\FYDP\Software\MIDIMerger\main.c
                suart1_in   0x000044       data     extern C:\Users\Hussein\OneDrive\Documents\FYDP\Software\MIDIMerger\main.c
             suart2_count   0x000042       data     extern C:\Users\Hussein\OneDrive\Documents\FYDP\Software\MIDIMerger\main.c
                suart2_in   0x000045       data     extern C:\Users\Hussein\OneDrive\Documents\FYDP\Software\MIDIMerger\main.c
             tmr2intcount   0x00004e       data     extern C:\Users\Hussein\OneDrive\Documents\FYDP\Software\MIDIMerger\main.c
       tmr2intcountreload   0x000050       data     extern C:\Users\Hussein\OneDrive\Documents\FYDP\Software\MIDIMerger\main.c
                 uartdata   0x0000c5       data     extern C:\PICPRJ\NewMIDIMerger\uartdata.asm



                              Symbols - Sorted by Address
                     Name    Address   Location    Storage File                     
                ---------  ---------  ---------  --------- ---------                
                   _entry   0x000000    program     extern E:\3.46\pic18-lt\cxx-framework\src\traditional\startup\c018i.c
       ___return_lbl00000   0x000004    program     static                          
                   __init   0x000006    program     extern E:\3.46\pic18-lt\cxx-framework\src\traditional\stdclib\__init.c
      InterruptVectorHigh   0x000008    program     extern C:\Users\Hussein\OneDrive\Documents\FYDP\Software\MIDIMerger\main.c
       ___return_lbl00053   0x00000c    program     static                          
       DelayRXHalfBitUART   0x00000e    program     extern C:\PICPRJ\NewMIDIMerger\SoftwareUARTDelays.c
           DelayRXBitUART   0x000010    program     extern C:\PICPRJ\NewMIDIMerger\SoftwareUARTDelays.c
           DelayTXBitUART   0x000012    program     extern C:\PICPRJ\NewMIDIMerger\SoftwareUARTDelays.c
       InterruptVectorLow   0x000018    program     extern C:\Users\Hussein\OneDrive\Documents\FYDP\Software\MIDIMerger\main.c
       ___return_lbl00054   0x00001c    program     static                          
                     main   0x00002c    program     extern C:\Users\Hussein\OneDrive\Documents\FYDP\Software\MIDIMerger\main.c
          ___for_lbl00003   0x000048    program     static                          
          ___for_lbl00001   0x0000a6    program     static                          
          ___for_lbl00002   0x0000b2    program     static                          
          ___for_lbl00007   0x0000d4    program     static                          
          ___for_lbl00004   0x0001b8    program     static                          
           ___if_lbl00006   0x0001b8    program     static                          
          ___for_lbl00005   0x0001c2    program     static                          
        ___while_lbl00008   0x000220    program     static                          
          ___for_lbl00039   0x000228    program     static                          
        ___while_lbl00012   0x000276    program     static                          
           ___if_lbl00014   0x00032a    program     static                          
         ___else_lbl00019   0x00033e    program     static                          
           ___if_lbl00015   0x0003d8    program     static                          
         ___else_lbl00017   0x0003da    program     static                          
           ___if_lbl00016   0x0003e2    program     static                          
           ___if_lbl00018   0x0003ee    program     static                          
         ___else_lbl00033   0x0003f8    program     static                          
         ___else_lbl00025   0x00041c    program     static                          
           ___if_lbl00020   0x0004ac    program     static                          
         ___else_lbl00022   0x0004ae    program     static                          
           ___if_lbl00024   0x0004ca    program     static                          
           ___if_lbl00023   0x0004ca    program     static                          
           ___if_lbl00021   0x0004ca    program     static                          
           ___if_lbl00026   0x000524    program     static                          
         ___else_lbl00031   0x000526    program     static                          
               __tmplbl_1   0x00055e    program     static                          
               __tmplbl_0   0x000564    program     static                          
           ___if_lbl00028   0x000590    program     static                          
           ___if_lbl00029   0x000590    program     static                          
           ___if_lbl00030   0x000598    program     static                          
           ___if_lbl00032   0x0005a0    program     static                          
         ___else_lbl00037   0x0005a2    program     static                          
         ___else_lbl00035   0x0005b0    program     static                          
           ___if_lbl00034   0x0005b2    program     static                          
           ___if_lbl00036   0x0005b2    program     static                          
        ___while_lbl00013   0x0005b4    program     static                          
           ___if_lbl00038   0x0005c0    program     static                          
          ___for_lbl00010   0x0005c0    program     static                          
          ___for_lbl00011   0x0005cc    program     static                          
       ___return_lbl00000   0x0005ce    program     static                          
        ___while_lbl00009   0x0005ce    program     static                          
                     CMax   0x0005e2    program     extern C:\Users\Hussein\OneDrive\Documents\FYDP\Software\MIDIMerger\main.c
     InterruptHandlerHigh   0x00062e    program     extern C:\Users\Hussein\OneDrive\Documents\FYDP\Software\MIDIMerger\main.c
               __tmplbl_3   0x000646    program     static                          
               __tmplbl_2   0x00064c    program     static                          
           ___if_lbl00057   0x00065c    program     static                          
               __tmplbl_5   0x000662    program     static                          
               __tmplbl_4   0x000668    program     static                          
           ___if_lbl00059   0x00067a    program     static                          
               __tmplbl_7   0x000680    program     static                          
               __tmplbl_6   0x000686    program     static                          
           ___if_lbl00061   0x00069a    program     static                          
               __tmplbl_9   0x0006a0    program     static                          
               __tmplbl_8   0x0006a6    program     static                          
           ___if_lbl00063   0x0006d6    program     static                          
                     fin0   0x0006e6    program     static                          
           ___if_lbl00065   0x0006e6    program     static                          
           ___if_lbl00064   0x0006e6    program     static                          
              __tmplbl_11   0x0006ec    program     static                          
              __tmplbl_10   0x0006f2    program     static                          
           ___if_lbl00067   0x000726    program     static                          
                     fin1   0x00072c    program     static                          
           ___if_lbl00068   0x00072c    program     static                          
              __tmplbl_13   0x000732    program     static                          
              __tmplbl_12   0x000738    program     static                          
           ___if_lbl00070   0x00076c    program     static                          
                     fin2   0x000772    program     static                          
           ___if_lbl00071   0x000772    program     static                          
           ___if_lbl00072   0x000792    program     static                          
           ___if_lbl00073   0x000792    program     static                          
       ___return_lbl00055   0x000792    program     static                          
      InterruptHandlerLow   0x0007a2    program     extern C:\Users\Hussein\OneDrive\Documents\FYDP\Software\MIDIMerger\main.c
                 delay_ms   0x0007cc    program     extern C:\Users\Hussein\OneDrive\Documents\FYDP\Software\MIDIMerger\main.c
                 delay_us   0x00082e    program     extern C:\Users\Hussein\OneDrive\Documents\FYDP\Software\MIDIMerger\main.c
          ___for_lbl00084   0x00083e    program     static                          
              __tmplbl_16   0x00085e    program     static                          
          ___for_lbl00082   0x00086a    program     static                          
          ___for_lbl00083   0x000874    program     static                          
       ___return_lbl00081   0x000874    program     static                          
                   TxMIDI   0x000888    program     extern C:\Users\Hussein\OneDrive\Documents\FYDP\Software\MIDIMerger\main.c
              WriteEEPROM   0x0008a8    program     extern C:\Users\Hussein\OneDrive\Documents\FYDP\Software\MIDIMerger\main.c
     WriteEEPROMShortLong   0x00091e    program     extern C:\Users\Hussein\OneDrive\Documents\FYDP\Software\MIDIMerger\main.c
           WriteEEPROMInt   0x0009c8    program     extern C:\Users\Hussein\OneDrive\Documents\FYDP\Software\MIDIMerger\main.c
               ReadEEPROM   0x000a36    program     extern C:\Users\Hussein\OneDrive\Documents\FYDP\Software\MIDIMerger\main.c
      ReadEEPROMShortLong   0x000a5c    program     extern C:\Users\Hussein\OneDrive\Documents\FYDP\Software\MIDIMerger\main.c
            ReadEEPROMInt   0x000b08    program     extern C:\Users\Hussein\OneDrive\Documents\FYDP\Software\MIDIMerger\main.c
               startupLED   0x000b7a    program     extern C:\Users\Hussein\OneDrive\Documents\FYDP\Software\MIDIMerger\main.c
                _do_cinit   0x000c20    program     extern E:\3.46\pic18-lt\cxx-framework\src\traditional\startup\c018i.c
                     test   0x000c3a    program     static                          
                copy_loop   0x000c92    program     static                          
            copy_one_byte   0x000c98    program     static                          
             done_copying   0x000ca6    program     static                          
                     done   0x000cbc    program     static                          
       ___return_lbl00002   0x000cbc    program     static                          
                 OpenUART   0x000cbe    program     extern C:\PICPRJ\NewMIDIMerger\openuart.asm
                WriteUART   0x000ccc    program     extern C:\PICPRJ\NewMIDIMerger\writuart.asm
                  SendBit   0x000ce0    program     static C:\PICPRJ\NewMIDIMerger\writuart.asm
                SendStart   0x000ce4    program     static C:\PICPRJ\NewMIDIMerger\writuart.asm
                 ReadUART   0x000d04    program     extern C:\PICPRJ\NewMIDIMerger\readuart.asm
                 WaitChar   0x000d0c    program     static C:\PICPRJ\NewMIDIMerger\readuart.asm
                  GetChar   0x000d1e    program     static C:\PICPRJ\NewMIDIMerger\readuart.asm
                OpenUSART   0x000d46    program     extern E:\3.46\pic18-lt\cxx-framework\src\pmc_common\USART\uopen.c
                 putsUART   0x000dc0    program     extern C:\PICPRJ\NewMIDIMerger\putsuart.c
               WriteUSART   0x000dfc    program     extern E:\3.46\pic18-lt\cxx-framework\src\pmc_common\USART\uwrite.c
              Delay1KTCYx   0x000e2a    program     extern E:\3.46\pic18-lt\cxx-framework\src\traditional\delays\d1ktcyx.asm
                     D1Kx   0x000e34    program     static E:\3.46\pic18-lt\cxx-framework\src\traditional\delays\d1ktcyx.asm
                    D1K_1   0x000e36    program     static E:\3.46\pic18-lt\cxx-framework\src\traditional\delays\d1ktcyx.asm
        _D1KTCYXCODE_0010   0x000e3a    program     static E:\3.46\pic18-lt\cxx-framework\src\traditional\delays\d1ktcyx.asm
        _D1KTCYXCODE_0016   0x000e40    program     static E:\3.46\pic18-lt\cxx-framework\src\traditional\delays\d1ktcyx.asm
            __zero_memory   0x000e4a    program     extern E:\3.46\pic18-lt\cxx-framework\src\traditional\proc\p18f4320.asm
               zero_block   0x000e58    program     static E:\3.46\pic18-lt\cxx-framework\src\traditional\proc\p18f4320.asm
                   loop_h   0x000e58    program     static E:\3.46\pic18-lt\cxx-framework\src\traditional\proc\p18f4320.asm
                compare_l   0x000e60    program     static E:\3.46\pic18-lt\cxx-framework\src\traditional\proc\p18f4320.asm
                   loop_l   0x000e62    program     static E:\3.46\pic18-lt\cxx-framework\src\traditional\proc\p18f4320.asm
                 _startup   0x000e6a    program     extern E:\3.46\pic18-lt\cxx-framework\src\traditional\startup\c018i.c
                     loop   0x000e7a    program     static                          
       ___return_lbl00001   0x000e84    program     static                          
               __config_0   0x300001    program     static C:\Users\Hussein\OneDrive\Documents\FYDP\Software\MIDIMerger\main.c
               __config_1   0x300002    program     static C:\Users\Hussein\OneDrive\Documents\FYDP\Software\MIDIMerger\main.c
               __config_2   0x300003    program     static C:\Users\Hussein\OneDrive\Documents\FYDP\Software\MIDIMerger\main.c
               __config_3   0x300005    program     static C:\Users\Hussein\OneDrive\Documents\FYDP\Software\MIDIMerger\main.c
               __config_4   0x300006    program     static C:\Users\Hussein\OneDrive\Documents\FYDP\Software\MIDIMerger\main.c
               __config_5   0x300008    program     static C:\Users\Hussein\OneDrive\Documents\FYDP\Software\MIDIMerger\main.c
               __config_6   0x300009    program     static C:\Users\Hussein\OneDrive\Documents\FYDP\Software\MIDIMerger\main.c
               __config_7   0x30000a    program     static C:\Users\Hussein\OneDrive\Documents\FYDP\Software\MIDIMerger\main.c
               __config_8   0x30000b    program     static C:\Users\Hussein\OneDrive\Documents\FYDP\Software\MIDIMerger\main.c
               __config_9   0x30000c    program     static C:\Users\Hussein\OneDrive\Documents\FYDP\Software\MIDIMerger\main.c
              __config_10   0x30000d    program     static C:\Users\Hussein\OneDrive\Documents\FYDP\Software\MIDIMerger\main.c
     midi_min_volume_copy   0xf00000    program     extern ..\eepromstuff.asm       
         midi_assign_copy   0xf00010    program     extern ..\eepromstuff.asm       
         midi_filter_copy   0xf00020    program     extern ..\eepromstuff.asm       
                  the_end   0xf00026    program     static ..\eepromstuff.asm       
                     buf0   0x000000       data     extern C:\Users\Hussein\OneDrive\Documents\FYDP\Software\MIDIMerger\main.c
                     buf1   0x000010       data     extern C:\Users\Hussein\OneDrive\Documents\FYDP\Software\MIDIMerger\main.c
                     buf2   0x000020       data     extern C:\Users\Hussein\OneDrive\Documents\FYDP\Software\MIDIMerger\main.c
                     buf3   0x000030       data     extern C:\Users\Hussein\OneDrive\Documents\FYDP\Software\MIDIMerger\main.c
             suart0_count   0x000040       data     extern C:\Users\Hussein\OneDrive\Documents\FYDP\Software\MIDIMerger\main.c
             suart1_count   0x000041       data     extern C:\Users\Hussein\OneDrive\Documents\FYDP\Software\MIDIMerger\main.c
             suart2_count   0x000042       data     extern C:\Users\Hussein\OneDrive\Documents\FYDP\Software\MIDIMerger\main.c
                suart0_in   0x000043       data     extern C:\Users\Hussein\OneDrive\Documents\FYDP\Software\MIDIMerger\main.c
                suart1_in   0x000044       data     extern C:\Users\Hussein\OneDrive\Documents\FYDP\Software\MIDIMerger\main.c
                suart2_in   0x000045       data     extern C:\Users\Hussein\OneDrive\Documents\FYDP\Software\MIDIMerger\main.c
                 in_index   0x000046       data     extern C:\Users\Hussein\OneDrive\Documents\FYDP\Software\MIDIMerger\main.c
                midi_byte   0x00004a       data     extern C:\Users\Hussein\OneDrive\Documents\FYDP\Software\MIDIMerger\main.c
             midi_timeout   0x00004b       data     extern C:\Users\Hussein\OneDrive\Documents\FYDP\Software\MIDIMerger\main.c
             tmr2intcount   0x00004e       data     extern C:\Users\Hussein\OneDrive\Documents\FYDP\Software\MIDIMerger\main.c
       tmr2intcountreload   0x000050       data     extern C:\Users\Hussein\OneDrive\Documents\FYDP\Software\MIDIMerger\main.c
          interpret_level   0x000052       data     extern C:\Users\Hussein\OneDrive\Documents\FYDP\Software\MIDIMerger\main.c
                  __REMB3   0x000053       data     extern E:\3.46\pic18-lt\cxx-framework\src\traditional\math\aarg.asm
                 __AARGB7   0x000053       data     extern E:\3.46\pic18-lt\cxx-framework\src\traditional\math\aarg.asm
                  __REMB2   0x000054       data     extern E:\3.46\pic18-lt\cxx-framework\src\traditional\math\aarg.asm
                 __AARGB6   0x000054       data     extern E:\3.46\pic18-lt\cxx-framework\src\traditional\math\aarg.asm
                  __REMB1   0x000055       data     extern E:\3.46\pic18-lt\cxx-framework\src\traditional\math\aarg.asm
                 __AARGB5   0x000055       data     extern E:\3.46\pic18-lt\cxx-framework\src\traditional\math\aarg.asm
                  __REMB0   0x000056       data     extern E:\3.46\pic18-lt\cxx-framework\src\traditional\math\aarg.asm
                 __AARGB4   0x000056       data     extern E:\3.46\pic18-lt\cxx-framework\src\traditional\math\aarg.asm
                 __AARGB3   0x000057       data     extern E:\3.46\pic18-lt\cxx-framework\src\traditional\math\aarg.asm
                 __AARGB2   0x000058       data     extern E:\3.46\pic18-lt\cxx-framework\src\traditional\math\aarg.asm
                 __AARGB1   0x000059       data     extern E:\3.46\pic18-lt\cxx-framework\src\traditional\math\aarg.asm
                 __AARGB0   0x00005a       data     extern E:\3.46\pic18-lt\cxx-framework\src\traditional\math\aarg.asm
                   __AEXP   0x00005b       data     extern E:\3.46\pic18-lt\cxx-framework\src\traditional\math\aarg.asm
                     SIGN   0x00005c       data     extern E:\3.46\pic18-lt\cxx-framework\src\traditional\math\cmath18.asm
            __FPFLAGSbits   0x00005d       data     extern E:\3.46\pic18-lt\cxx-framework\src\traditional\math\cmath18.asm
                __FPFLAGS   0x00005d       data     extern E:\3.46\pic18-lt\cxx-framework\src\traditional\math\cmath18.asm
                  __tmp_0   0x00005e       data     static C:\Users\Hussein\OneDrive\Documents\FYDP\Software\MIDIMerger\main.c
            DelayCounter1   0x000062       data     extern E:\3.46\pic18-lt\cxx-framework\src\traditional\delays\delayd1.asm
                   bufptr   0x000080       data     extern C:\Users\Hussein\OneDrive\Documents\FYDP\Software\MIDIMerger\main.c
          midi_min_volume   0x000088       data     extern C:\Users\Hussein\OneDrive\Documents\FYDP\Software\MIDIMerger\main.c
              midi_assign   0x000098       data     extern C:\Users\Hussein\OneDrive\Documents\FYDP\Software\MIDIMerger\main.c
              midi_filter   0x0000a8       data     extern C:\Users\Hussein\OneDrive\Documents\FYDP\Software\MIDIMerger\main.c
                   curbuf   0x0000ae       data     extern C:\Users\Hussein\OneDrive\Documents\FYDP\Software\MIDIMerger\main.c
           midi_runstatus   0x0000b0       data     extern C:\Users\Hussein\OneDrive\Documents\FYDP\Software\MIDIMerger\main.c
                out_index   0x0000b4       data     extern C:\Users\Hussein\OneDrive\Documents\FYDP\Software\MIDIMerger\main.c
                   filter   0x0000b8       data     extern C:\Users\Hussein\OneDrive\Documents\FYDP\Software\MIDIMerger\main.c
                assign_to   0x0000b9       data     extern C:\Users\Hussein\OneDrive\Documents\FYDP\Software\MIDIMerger\main.c
      expected_midi_bytes   0x0000ba       data     extern C:\Users\Hussein\OneDrive\Documents\FYDP\Software\MIDIMerger\main.c
                     prom   0x0000bb       data     static E:\3.46\pic18-lt\cxx-framework\src\traditional\startup\c018i.c
                curr_byte   0x0000be       data     static E:\3.46\pic18-lt\cxx-framework\src\traditional\startup\c018i.c
               curr_entry   0x0000c0       data     static E:\3.46\pic18-lt\cxx-framework\src\traditional\startup\c018i.c
                 data_ptr   0x0000c2       data     static E:\3.46\pic18-lt\cxx-framework\src\traditional\startup\c018i.c
                 uartdata   0x0000c5       data     extern C:\PICPRJ\NewMIDIMerger\uartdata.asm
                 BitCount   0x0000c6       data     extern C:\PICPRJ\NewMIDIMerger\uartdata.asm
             USART_Status   0x0000c7       data     extern E:\3.46\pic18-lt\cxx-framework\src\pmc_common\USART\udefs.c
                    PORTA   0x000f80       data     extern E:\3.46\pic18-lt\cxx-framework\src\traditional\proc\p18f4320.asm
                PORTAbits   0x000f80       data     extern E:\3.46\pic18-lt\cxx-framework\src\traditional\proc\p18f4320.asm
                    PORTB   0x000f81       data     extern E:\3.46\pic18-lt\cxx-framework\src\traditional\proc\p18f4320.asm
                PORTBbits   0x000f81       data     extern E:\3.46\pic18-lt\cxx-framework\src\traditional\proc\p18f4320.asm
                PORTCbits   0x000f82       data     extern E:\3.46\pic18-lt\cxx-framework\src\traditional\proc\p18f4320.asm
                    PORTC   0x000f82       data     extern E:\3.46\pic18-lt\cxx-framework\src\traditional\proc\p18f4320.asm
                    PORTD   0x000f83       data     extern E:\3.46\pic18-lt\cxx-framework\src\traditional\proc\p18f4320.asm
                PORTDbits   0x000f83       data     extern E:\3.46\pic18-lt\cxx-framework\src\traditional\proc\p18f4320.asm
                    PORTE   0x000f84       data     extern E:\3.46\pic18-lt\cxx-framework\src\traditional\proc\p18f4320.asm
                PORTEbits   0x000f84       data     extern E:\3.46\pic18-lt\cxx-framework\src\traditional\proc\p18f4320.asm
                     LATA   0x000f89       data     extern E:\3.46\pic18-lt\cxx-framework\src\traditional\proc\p18f4320.asm
                 LATAbits   0x000f89       data     extern E:\3.46\pic18-lt\cxx-framework\src\traditional\proc\p18f4320.asm
                     LATB   0x000f8a       data     extern E:\3.46\pic18-lt\cxx-framework\src\traditional\proc\p18f4320.asm
                 LATBbits   0x000f8a       data     extern E:\3.46\pic18-lt\cxx-framework\src\traditional\proc\p18f4320.asm
                 LATCbits   0x000f8b       data     extern E:\3.46\pic18-lt\cxx-framework\src\traditional\proc\p18f4320.asm
                     LATC   0x000f8b       data     extern E:\3.46\pic18-lt\cxx-framework\src\traditional\proc\p18f4320.asm
                 LATDbits   0x000f8c       data     extern E:\3.46\pic18-lt\cxx-framework\src\traditional\proc\p18f4320.asm
                     LATD   0x000f8c       data     extern E:\3.46\pic18-lt\cxx-framework\src\traditional\proc\p18f4320.asm
                     LATE   0x000f8d       data     extern E:\3.46\pic18-lt\cxx-framework\src\traditional\proc\p18f4320.asm
                 LATEbits   0x000f8d       data     extern E:\3.46\pic18-lt\cxx-framework\src\traditional\proc\p18f4320.asm
                    TRISA   0x000f92       data     extern E:\3.46\pic18-lt\cxx-framework\src\traditional\proc\p18f4320.asm
                     DDRA   0x000f92       data     extern E:\3.46\pic18-lt\cxx-framework\src\traditional\proc\p18f4320.asm
                 DDRAbits   0x000f92       data     extern E:\3.46\pic18-lt\cxx-framework\src\traditional\proc\p18f4320.asm
                TRISAbits   0x000f92       data     extern E:\3.46\pic18-lt\cxx-framework\src\traditional\proc\p18f4320.asm
                     DDRB   0x000f93       data     extern E:\3.46\pic18-lt\cxx-framework\src\traditional\proc\p18f4320.asm
                    TRISB   0x000f93       data     extern E:\3.46\pic18-lt\cxx-framework\src\traditional\proc\p18f4320.asm
                TRISBbits   0x000f93       data     extern E:\3.46\pic18-lt\cxx-framework\src\traditional\proc\p18f4320.asm
                 DDRBbits   0x000f93       data     extern E:\3.46\pic18-lt\cxx-framework\src\traditional\proc\p18f4320.asm
                 DDRCbits   0x000f94       data     extern E:\3.46\pic18-lt\cxx-framework\src\traditional\proc\p18f4320.asm
                     DDRC   0x000f94       data     extern E:\3.46\pic18-lt\cxx-framework\src\traditional\proc\p18f4320.asm
                    TRISC   0x000f94       data     extern E:\3.46\pic18-lt\cxx-framework\src\traditional\proc\p18f4320.asm
                TRISCbits   0x000f94       data     extern E:\3.46\pic18-lt\cxx-framework\src\traditional\proc\p18f4320.asm
                     DDRD   0x000f95       data     extern E:\3.46\pic18-lt\cxx-framework\src\traditional\proc\p18f4320.asm
                    TRISD   0x000f95       data     extern E:\3.46\pic18-lt\cxx-framework\src\traditional\proc\p18f4320.asm
                TRISDbits   0x000f95       data     extern E:\3.46\pic18-lt\cxx-framework\src\traditional\proc\p18f4320.asm
                 DDRDbits   0x000f95       data     extern E:\3.46\pic18-lt\cxx-framework\src\traditional\proc\p18f4320.asm
                     DDRE   0x000f96       data     extern E:\3.46\pic18-lt\cxx-framework\src\traditional\proc\p18f4320.asm
                TRISEbits   0x000f96       data     extern E:\3.46\pic18-lt\cxx-framework\src\traditional\proc\p18f4320.asm
                    TRISE   0x000f96       data     extern E:\3.46\pic18-lt\cxx-framework\src\traditional\proc\p18f4320.asm
                 DDREbits   0x000f96       data     extern E:\3.46\pic18-lt\cxx-framework\src\traditional\proc\p18f4320.asm
              OSCTUN2bits   0x000f9a       data     extern E:\3.46\pic18-lt\cxx-framework\src\traditional\proc\p18f4320.asm
                  OSCTUN2   0x000f9a       data     extern E:\3.46\pic18-lt\cxx-framework\src\traditional\proc\p18f4320.asm
              OSCTUNEbits   0x000f9b       data     extern E:\3.46\pic18-lt\cxx-framework\src\traditional\proc\p18f4320.asm
                  OSCTUNE   0x000f9b       data     extern E:\3.46\pic18-lt\cxx-framework\src\traditional\proc\p18f4320.asm
                     PIE1   0x000f9d       data     extern E:\3.46\pic18-lt\cxx-framework\src\traditional\proc\p18f4320.asm
                 PIE1bits   0x000f9d       data     extern E:\3.46\pic18-lt\cxx-framework\src\traditional\proc\p18f4320.asm
                     PIR1   0x000f9e       data     extern E:\3.46\pic18-lt\cxx-framework\src\traditional\proc\p18f4320.asm
                 PIR1bits   0x000f9e       data     extern E:\3.46\pic18-lt\cxx-framework\src\traditional\proc\p18f4320.asm
                     IPR1   0x000f9f       data     extern E:\3.46\pic18-lt\cxx-framework\src\traditional\proc\p18f4320.asm
                 IPR1bits   0x000f9f       data     extern E:\3.46\pic18-lt\cxx-framework\src\traditional\proc\p18f4320.asm
                 PIE2bits   0x000fa0       data     extern E:\3.46\pic18-lt\cxx-framework\src\traditional\proc\p18f4320.asm
                     PIE2   0x000fa0       data     extern E:\3.46\pic18-lt\cxx-framework\src\traditional\proc\p18f4320.asm
                     PIR2   0x000fa1       data     extern E:\3.46\pic18-lt\cxx-framework\src\traditional\proc\p18f4320.asm
                 PIR2bits   0x000fa1       data     extern E:\3.46\pic18-lt\cxx-framework\src\traditional\proc\p18f4320.asm
                     IPR2   0x000fa2       data     extern E:\3.46\pic18-lt\cxx-framework\src\traditional\proc\p18f4320.asm
                 IPR2bits   0x000fa2       data     extern E:\3.46\pic18-lt\cxx-framework\src\traditional\proc\p18f4320.asm
                   EECON1   0x000fa6       data     extern E:\3.46\pic18-lt\cxx-framework\src\traditional\proc\p18f4320.asm
               EECON1bits   0x000fa6       data     extern E:\3.46\pic18-lt\cxx-framework\src\traditional\proc\p18f4320.asm
                   EECON2   0x000fa7       data     extern E:\3.46\pic18-lt\cxx-framework\src\traditional\proc\p18f4320.asm
                   EEDATA   0x000fa8       data     extern E:\3.46\pic18-lt\cxx-framework\src\traditional\proc\p18f4320.asm
                    EEADR   0x000fa9       data     extern E:\3.46\pic18-lt\cxx-framework\src\traditional\proc\p18f4320.asm
                RCSTAbits   0x000fab       data     extern E:\3.46\pic18-lt\cxx-framework\src\traditional\proc\p18f4320.asm
                    RCSTA   0x000fab       data     extern E:\3.46\pic18-lt\cxx-framework\src\traditional\proc\p18f4320.asm
                    TXSTA   0x000fac       data     extern E:\3.46\pic18-lt\cxx-framework\src\traditional\proc\p18f4320.asm
                TXSTAbits   0x000fac       data     extern E:\3.46\pic18-lt\cxx-framework\src\traditional\proc\p18f4320.asm
                    TXREG   0x000fad       data     extern E:\3.46\pic18-lt\cxx-framework\src\traditional\proc\p18f4320.asm
                    RCREG   0x000fae       data     extern E:\3.46\pic18-lt\cxx-framework\src\traditional\proc\p18f4320.asm
                    SPBRG   0x000faf       data     extern E:\3.46\pic18-lt\cxx-framework\src\traditional\proc\p18f4320.asm
                T3CONbits   0x000fb1       data     extern E:\3.46\pic18-lt\cxx-framework\src\traditional\proc\p18f4320.asm
                    T3CON   0x000fb1       data     extern E:\3.46\pic18-lt\cxx-framework\src\traditional\proc\p18f4320.asm
                    TMR3L   0x000fb2       data     extern E:\3.46\pic18-lt\cxx-framework\src\traditional\proc\p18f4320.asm
                    TMR3H   0x000fb3       data     extern E:\3.46\pic18-lt\cxx-framework\src\traditional\proc\p18f4320.asm
                CMCONbits   0x000fb4       data     extern E:\3.46\pic18-lt\cxx-framework\src\traditional\proc\p18f4320.asm
                    CMCON   0x000fb4       data     extern E:\3.46\pic18-lt\cxx-framework\src\traditional\proc\p18f4320.asm
               CVRCONbits   0x000fb5       data     extern E:\3.46\pic18-lt\cxx-framework\src\traditional\proc\p18f4320.asm
                   CVRCON   0x000fb5       data     extern E:\3.46\pic18-lt\cxx-framework\src\traditional\proc\p18f4320.asm
               ECCPASbits   0x000fb6       data     extern E:\3.46\pic18-lt\cxx-framework\src\traditional\proc\p18f4320.asm
                   ECCPAS   0x000fb6       data     extern E:\3.46\pic18-lt\cxx-framework\src\traditional\proc\p18f4320.asm
              PWM1CONbits   0x000fb7       data     extern E:\3.46\pic18-lt\cxx-framework\src\traditional\proc\p18f4320.asm
                  PWM1CON   0x000fb7       data     extern E:\3.46\pic18-lt\cxx-framework\src\traditional\proc\p18f4320.asm
                  CCP2CON   0x000fba       data     extern E:\3.46\pic18-lt\cxx-framework\src\traditional\proc\p18f4320.asm
              CCP2CONbits   0x000fba       data     extern E:\3.46\pic18-lt\cxx-framework\src\traditional\proc\p18f4320.asm
                    CCPR2   0x000fbb       data     extern E:\3.46\pic18-lt\cxx-framework\src\traditional\proc\p18f4320.asm
                   CCPR2L   0x000fbb       data     extern E:\3.46\pic18-lt\cxx-framework\src\traditional\proc\p18f4320.asm
                   CCPR2H   0x000fbc       data     extern E:\3.46\pic18-lt\cxx-framework\src\traditional\proc\p18f4320.asm
              CCP1CONbits   0x000fbd       data     extern E:\3.46\pic18-lt\cxx-framework\src\traditional\proc\p18f4320.asm
                  CCP1CON   0x000fbd       data     extern E:\3.46\pic18-lt\cxx-framework\src\traditional\proc\p18f4320.asm
                    CCPR1   0x000fbe       data     extern E:\3.46\pic18-lt\cxx-framework\src\traditional\proc\p18f4320.asm
                   CCPR1L   0x000fbe       data     extern E:\3.46\pic18-lt\cxx-framework\src\traditional\proc\p18f4320.asm
                   CCPR1H   0x000fbf       data     extern E:\3.46\pic18-lt\cxx-framework\src\traditional\proc\p18f4320.asm
               ADCON2bits   0x000fc0       data     extern E:\3.46\pic18-lt\cxx-framework\src\traditional\proc\p18f4320.asm
                   ADCON2   0x000fc0       data     extern E:\3.46\pic18-lt\cxx-framework\src\traditional\proc\p18f4320.asm
                   ADCON1   0x000fc1       data     extern E:\3.46\pic18-lt\cxx-framework\src\traditional\proc\p18f4320.asm
               ADCON1bits   0x000fc1       data     extern E:\3.46\pic18-lt\cxx-framework\src\traditional\proc\p18f4320.asm
                   ADCON0   0x000fc2       data     extern E:\3.46\pic18-lt\cxx-framework\src\traditional\proc\p18f4320.asm
               ADCON0bits   0x000fc2       data     extern E:\3.46\pic18-lt\cxx-framework\src\traditional\proc\p18f4320.asm
                    ADRES   0x000fc3       data     extern E:\3.46\pic18-lt\cxx-framework\src\traditional\proc\p18f4320.asm
                   ADRESL   0x000fc3       data     extern E:\3.46\pic18-lt\cxx-framework\src\traditional\proc\p18f4320.asm
                   ADRESH   0x000fc4       data     extern E:\3.46\pic18-lt\cxx-framework\src\traditional\proc\p18f4320.asm
              SSPCON2bits   0x000fc5       data     extern E:\3.46\pic18-lt\cxx-framework\src\traditional\proc\p18f4320.asm
                  SSPCON2   0x000fc5       data     extern E:\3.46\pic18-lt\cxx-framework\src\traditional\proc\p18f4320.asm
              SSPCON1bits   0x000fc6       data     extern E:\3.46\pic18-lt\cxx-framework\src\traditional\proc\p18f4320.asm
                  SSPCON1   0x000fc6       data     extern E:\3.46\pic18-lt\cxx-framework\src\traditional\proc\p18f4320.asm
              SSPSTATbits   0x000fc7       data     extern E:\3.46\pic18-lt\cxx-framework\src\traditional\proc\p18f4320.asm
                  SSPSTAT   0x000fc7       data     extern E:\3.46\pic18-lt\cxx-framework\src\traditional\proc\p18f4320.asm
                   SSPADD   0x000fc8       data     extern E:\3.46\pic18-lt\cxx-framework\src\traditional\proc\p18f4320.asm
                   SSPBUF   0x000fc9       data     extern E:\3.46\pic18-lt\cxx-framework\src\traditional\proc\p18f4320.asm
                T2CONbits   0x000fca       data     extern E:\3.46\pic18-lt\cxx-framework\src\traditional\proc\p18f4320.asm
                    T2CON   0x000fca       data     extern E:\3.46\pic18-lt\cxx-framework\src\traditional\proc\p18f4320.asm
                      PR2   0x000fcb       data     extern E:\3.46\pic18-lt\cxx-framework\src\traditional\proc\p18f4320.asm
                     TMR2   0x000fcc       data     extern E:\3.46\pic18-lt\cxx-framework\src\traditional\proc\p18f4320.asm
                T1CONbits   0x000fcd       data     extern E:\3.46\pic18-lt\cxx-framework\src\traditional\proc\p18f4320.asm
                    T1CON   0x000fcd       data     extern E:\3.46\pic18-lt\cxx-framework\src\traditional\proc\p18f4320.asm
                    TMR1L   0x000fce       data     extern E:\3.46\pic18-lt\cxx-framework\src\traditional\proc\p18f4320.asm
                    TMR1H   0x000fcf       data     extern E:\3.46\pic18-lt\cxx-framework\src\traditional\proc\p18f4320.asm
                     RCON   0x000fd0       data     extern E:\3.46\pic18-lt\cxx-framework\src\traditional\proc\p18f4320.asm
                 RCONbits   0x000fd0       data     extern E:\3.46\pic18-lt\cxx-framework\src\traditional\proc\p18f4320.asm
               WDTCONbits   0x000fd1       data     extern E:\3.46\pic18-lt\cxx-framework\src\traditional\proc\p18f4320.asm
                   WDTCON   0x000fd1       data     extern E:\3.46\pic18-lt\cxx-framework\src\traditional\proc\p18f4320.asm
               LVDCONbits   0x000fd2       data     extern E:\3.46\pic18-lt\cxx-framework\src\traditional\proc\p18f4320.asm
                   LVDCON   0x000fd2       data     extern E:\3.46\pic18-lt\cxx-framework\src\traditional\proc\p18f4320.asm
               OSCCONbits   0x000fd3       data     extern E:\3.46\pic18-lt\cxx-framework\src\traditional\proc\p18f4320.asm
                   OSCCON   0x000fd3       data     extern E:\3.46\pic18-lt\cxx-framework\src\traditional\proc\p18f4320.asm
                T0CONbits   0x000fd5       data     extern E:\3.46\pic18-lt\cxx-framework\src\traditional\proc\p18f4320.asm
                    T0CON   0x000fd5       data     extern E:\3.46\pic18-lt\cxx-framework\src\traditional\proc\p18f4320.asm
                    TMR0L   0x000fd6       data     extern E:\3.46\pic18-lt\cxx-framework\src\traditional\proc\p18f4320.asm
                    TMR0H   0x000fd7       data     extern E:\3.46\pic18-lt\cxx-framework\src\traditional\proc\p18f4320.asm
                   STATUS   0x000fd8       data     extern E:\3.46\pic18-lt\cxx-framework\src\traditional\proc\p18f4320.asm
               STATUSbits   0x000fd8       data     extern E:\3.46\pic18-lt\cxx-framework\src\traditional\proc\p18f4320.asm
                    FSR2L   0x000fd9       data     extern E:\3.46\pic18-lt\cxx-framework\src\traditional\proc\p18f4320.asm
                     FSR2   0x000fd9       data     extern E:\3.46\pic18-lt\cxx-framework\src\traditional\proc\p18f4320.asm
                    FSR2H   0x000fda       data     extern E:\3.46\pic18-lt\cxx-framework\src\traditional\proc\p18f4320.asm
                   PLUSW2   0x000fdb       data     extern E:\3.46\pic18-lt\cxx-framework\src\traditional\proc\p18f4320.asm
                  PREINC2   0x000fdc       data     extern E:\3.46\pic18-lt\cxx-framework\src\traditional\proc\p18f4320.asm
                 POSTDEC2   0x000fdd       data     extern E:\3.46\pic18-lt\cxx-framework\src\traditional\proc\p18f4320.asm
                 POSTINC2   0x000fde       data     extern E:\3.46\pic18-lt\cxx-framework\src\traditional\proc\p18f4320.asm
                    INDF2   0x000fdf       data     extern E:\3.46\pic18-lt\cxx-framework\src\traditional\proc\p18f4320.asm
                      BSR   0x000fe0       data     extern E:\3.46\pic18-lt\cxx-framework\src\traditional\proc\p18f4320.asm
                    FSR1L   0x000fe1       data     extern E:\3.46\pic18-lt\cxx-framework\src\traditional\proc\p18f4320.asm
                     FSR1   0x000fe1       data     extern E:\3.46\pic18-lt\cxx-framework\src\traditional\proc\p18f4320.asm
                    FSR1H   0x000fe2       data     extern E:\3.46\pic18-lt\cxx-framework\src\traditional\proc\p18f4320.asm
                   PLUSW1   0x000fe3       data     extern E:\3.46\pic18-lt\cxx-framework\src\traditional\proc\p18f4320.asm
                  PREINC1   0x000fe4       data     extern E:\3.46\pic18-lt\cxx-framework\src\traditional\proc\p18f4320.asm
                 POSTDEC1   0x000fe5       data     extern E:\3.46\pic18-lt\cxx-framework\src\traditional\proc\p18f4320.asm
                 POSTINC1   0x000fe6       data     extern E:\3.46\pic18-lt\cxx-framework\src\traditional\proc\p18f4320.asm
                    INDF1   0x000fe7       data     extern E:\3.46\pic18-lt\cxx-framework\src\traditional\proc\p18f4320.asm
                     WREG   0x000fe8       data     extern E:\3.46\pic18-lt\cxx-framework\src\traditional\proc\p18f4320.asm
                        W   0x000fe8       data     extern E:\3.46\pic18-lt\cxx-framework\src\traditional\proc\p18f4320.asm
                    FSR0L   0x000fe9       data     extern E:\3.46\pic18-lt\cxx-framework\src\traditional\proc\p18f4320.asm
                     FSR0   0x000fe9       data     extern E:\3.46\pic18-lt\cxx-framework\src\traditional\proc\p18f4320.asm
                    FSR0H   0x000fea       data     extern E:\3.46\pic18-lt\cxx-framework\src\traditional\proc\p18f4320.asm
                   PLUSW0   0x000feb       data     extern E:\3.46\pic18-lt\cxx-framework\src\traditional\proc\p18f4320.asm
                  PREINC0   0x000fec       data     extern E:\3.46\pic18-lt\cxx-framework\src\traditional\proc\p18f4320.asm
                 POSTDEC0   0x000fed       data     extern E:\3.46\pic18-lt\cxx-framework\src\traditional\proc\p18f4320.asm
                 POSTINC0   0x000fee       data     extern E:\3.46\pic18-lt\cxx-framework\src\traditional\proc\p18f4320.asm
                    INDF0   0x000fef       data     extern E:\3.46\pic18-lt\cxx-framework\src\traditional\proc\p18f4320.asm
              INTCON3bits   0x000ff0       data     extern E:\3.46\pic18-lt\cxx-framework\src\traditional\proc\p18f4320.asm
                  INTCON3   0x000ff0       data     extern E:\3.46\pic18-lt\cxx-framework\src\traditional\proc\p18f4320.asm
              INTCON2bits   0x000ff1       data     extern E:\3.46\pic18-lt\cxx-framework\src\traditional\proc\p18f4320.asm
                  INTCON2   0x000ff1       data     extern E:\3.46\pic18-lt\cxx-framework\src\traditional\proc\p18f4320.asm
               INTCONbits   0x000ff2       data     extern E:\3.46\pic18-lt\cxx-framework\src\traditional\proc\p18f4320.asm
                   INTCON   0x000ff2       data     extern E:\3.46\pic18-lt\cxx-framework\src\traditional\proc\p18f4320.asm
                    PRODL   0x000ff3       data     extern E:\3.46\pic18-lt\cxx-framework\src\traditional\proc\p18f4320.asm
                     PROD   0x000ff3       data     extern E:\3.46\pic18-lt\cxx-framework\src\traditional\proc\p18f4320.asm
                    PRODH   0x000ff4       data     extern E:\3.46\pic18-lt\cxx-framework\src\traditional\proc\p18f4320.asm
                   TABLAT   0x000ff5       data     extern E:\3.46\pic18-lt\cxx-framework\src\traditional\proc\p18f4320.asm
                  TBLPTRL   0x000ff6       data     extern E:\3.46\pic18-lt\cxx-framework\src\traditional\proc\p18f4320.asm
                   TBLPTR   0x000ff6       data     extern E:\3.46\pic18-lt\cxx-framework\src\traditional\proc\p18f4320.asm
                  TBLPTRH   0x000ff7       data     extern E:\3.46\pic18-lt\cxx-framework\src\traditional\proc\p18f4320.asm
                  TBLPTRU   0x000ff8       data     extern E:\3.46\pic18-lt\cxx-framework\src\traditional\proc\p18f4320.asm
                       PC   0x000ff9       data     extern E:\3.46\pic18-lt\cxx-framework\src\traditional\proc\p18f4320.asm
                      PCL   0x000ff9       data     extern E:\3.46\pic18-lt\cxx-framework\src\traditional\proc\p18f4320.asm
                   PCLATH   0x000ffa       data     extern E:\3.46\pic18-lt\cxx-framework\src\traditional\proc\p18f4320.asm
                   PCLATU   0x000ffb       data     extern E:\3.46\pic18-lt\cxx-framework\src\traditional\proc\p18f4320.asm
               STKPTRbits   0x000ffc       data     extern E:\3.46\pic18-lt\cxx-framework\src\traditional\proc\p18f4320.asm
                   STKPTR   0x000ffc       data     extern E:\3.46\pic18-lt\cxx-framework\src\traditional\proc\p18f4320.asm
                     TOSL   0x000ffd       data     extern E:\3.46\pic18-lt\cxx-framework\src\traditional\proc\p18f4320.asm
                      TOS   0x000ffd       data     extern E:\3.46\pic18-lt\cxx-framework\src\traditional\proc\p18f4320.asm
                     TOSH   0x000ffe       data     extern E:\3.46\pic18-lt\cxx-framework\src\traditional\proc\p18f4320.asm
                     TOSU   0x000fff       data     extern E:\3.46\pic18-lt\cxx-framework\src\traditional\proc\p18f4320.asm


